Certificate:
    Data:
        Version: 3 (0x2)
        Serial Number: 5 (0x5)
    Signature Algorithm: sha256WithRSAEncryption
        Issuer: CN=k8s-20161122-master1@172.16.254.4
        Validity
            Not Before: Nov 23 19:27:50 2016 GMT
            Not After : Nov 21 19:27:50 2026 GMT
        Subject: CN=k8s-20161122-node1
        Subject Public Key Info:
            Public Key Algorithm: rsaEncryption
                Public-Key: (2048 bit)
                Modulus:
                    00:b7:ed:d3:85:0e:ea:4c:4b:ae:ef:6d:71:fc:7f:
                    81:f1:bb:8f:7f:49:96:70:35:fc:7f:85:7a:c8:42:
                    61:18:b5:ed:4d:84:00:3f:7d:9a:0c:b7:cd:e5:9d:
                    23:ad:0d:63:1c:b3:1c:55:67:d9:f5:95:1a:85:07:
                    16:3c:bf:0c:5b:f2:b7:3b:8a:be:22:49:00:0b:1c:
                    12:dc:1b:23:a7:33:a4:13:05:44:07:09:af:66:20:
                    38:dd:1b:6d:60:5a:6c:7d:f6:00:fa:dc:f1:c4:f6:
                    5e:d6:47:4c:ae:ce:61:ce:0c:1f:0e:9b:7e:a0:fa:
                    91:49:ea:00:ec:33:52:1f:3f:25:55:d6:87:6e:7a:
                    ae:0f:3b:67:ea:5a:26:55:2d:7f:be:51:4a:7a:c5:
                    54:46:c9:6d:89:95:96:be:b4:1f:16:8c:a9:65:0f:
                    00:80:64:5a:e0:ac:be:9b:d2:c5:3c:50:28:db:1f:
                    9f:d4:9d:dd:17:96:af:92:33:ab:47:53:6c:db:12:
                    ba:56:cb:bc:c8:e7:f4:91:c4:5a:81:3d:a8:e8:1f:
                    9b:f1:93:21:a6:78:35:40:7f:d9:c4:56:84:d1:22:
                    20:88:ae:5e:a6:00:27:c4:ef:42:e6:03:dd:39:1b:
                    ed:50:65:e7:d8:c5:1a:14:52:01:85:75:ae:15:0f:
                    7e:21
                Exponent: 65537 (0x10001)
        X509v3 extensions:
            X509v3 Basic Constraints: 
                CA:FALSE
            X509v3 Subject Key Identifier: 
                B6:9C:C6:41:DA:55:BF:AD:CE:BF:22:F5:19:FA:59:A8:F3:82:D2:79
            X509v3 Authority Key Identifier: 
                keyid:AF:B5:FD:82:C1:D3:A6:39:89:FC:AD:8F:71:C2:F6:B2:67:2A:3D:8C
                DirName:/CN=k8s-20161122-master1@172.16.254.4
                serial:8C:A8:09:01:80:11:68:57

            X509v3 Extended Key Usage: 
                TLS Web Server Authentication
            X509v3 Key Usage: 
                Digital Signature, Key Encipherment
    Signature Algorithm: sha256WithRSAEncryption
         4a:d9:b2:8a:f1:0c:bd:df:bd:fc:eb:ab:2a:a6:15:ee:58:33:
         fb:d4:e3:e0:df:d3:55:ad:3e:90:f4:b4:a0:03:d7:f7:3d:b7:
         f9:0d:25:73:88:6b:3f:4c:be:80:60:70:88:d0:89:2f:12:70:
         0d:19:de:f7:eb:d3:c0:c7:37:a7:fe:07:52:00:13:87:4b:38:
         29:54:4a:2a:a0:79:01:62:9f:aa:22:a9:f5:be:d9:08:b7:c6:
         eb:cc:48:41:fb:73:87:b4:5c:15:36:ed:9d:e9:5f:6a:b7:2d:
         d1:98:83:1e:c4:7c:57:5c:83:ed:d0:71:00:f5:fc:7e:6e:4f:
         25:2b:5e:14:f1:b1:ef:97:ab:d2:a2:a9:99:77:6e:d1:f7:6d:
         d0:2c:91:2f:0c:1d:fa:55:02:f7:7b:25:5f:58:1f:12:07:12:
         f9:8e:5b:83:75:0f:4a:e7:4e:5e:9e:5d:5f:7b:8f:c6:30:db:
         a9:a9:a8:05:8f:4f:86:5f:71:33:a3:43:0e:6b:85:ee:db:45:
         de:10:29:cc:09:4b:5e:74:29:d7:ad:84:5a:cc:64:9f:5c:86:
         f6:12:da:21:06:bf:43:37:f3:27:c5:e9:33:5b:67:fa:77:ae:
         1a:35:96:98:f9:93:49:00:0b:bb:4c:28:bc:4b:6c:7d:89:42:
         d6:c9:a5:5f
-----BEGIN CERTIFICATE-----
MIIDcjCCAlqgAwIBAgIBBTANBgkqhkiG9w0BAQsFADAsMSowKAYDVQQDFCFrOHMt
MjAxNjExMjItbWFzdGVyMUAxNzIuMTYuMjU0LjQwHhcNMTYxMTIzMTkyNzUwWhcN
MjYxMTIxMTkyNzUwWjAdMRswGQYDVQQDExJrOHMtMjAxNjExMjItbm9kZTEwggEi
MA0GCSqGSIb3DQEBAQUAA4IBDwAwggEKAoIBAQC37dOFDupMS67vbXH8f4Hxu49/
SZZwNfx/hXrIQmEYte1NhAA/fZoMt83lnSOtDWMcsxxVZ9n1lRqFBxY8vwxb8rc7
ir4iSQALHBLcGyOnM6QTBUQHCa9mIDjdG21gWmx99gD63PHE9l7WR0yuzmHODB8O
m36g+pFJ6gDsM1IfPyVV1odueq4PO2fqWiZVLX++UUp6xVRGyW2JlZa+tB8WjKll
DwCAZFrgrL6b0sU8UCjbH5/Und0Xlq+SM6tHU2zbErpWy7zI5/SRxFqBPajoH5vx
kyGmeDVAf9nEVoTRIiCIrl6mACfE70LmA905G+1QZefYxRoUUgGFda4VD34hAgMB
AAGjga0wgaowCQYDVR0TBAIwADAdBgNVHQ4EFgQUtpzGQdpVv63OvyL1GfpZqPOC
0nkwXAYDVR0jBFUwU4AUr7X9gsHTpjmJ/K2PccL2smcqPYyhMKQuMCwxKjAoBgNV
BAMUIWs4cy0yMDE2MTEyMi1tYXN0ZXIxQDE3Mi4xNi4yNTQuNIIJAIyoCQGAEWhX
MBMGA1UdJQQMMAoGCCsGAQUFBwMBMAsGA1UdDwQEAwIFoDANBgkqhkiG9w0BAQsF
AAOCAQEAStmyivEMvd+9/OurKqYV7lgz+9Tj4N/TVa0+kPS0oAPX9z23+Q0lc4hr
P0y+gGBwiNCJLxJwDRne9+vTwMc3p/4HUgATh0s4KVRKKqB5AWKfqiKp9b7ZCLfG
68xIQftzh7RcFTbtnelfarct0ZiDHsR8V1yD7dBxAPX8fm5PJSteFPGx75er0qKp
mXdu0fdt0CyRLwwd+lUC93slX1gfEgcS+Y5bg3UPSudOXp5dX3uPxjDbqamoBY9P
hl9xM6NDDmuF7ttF3hApzAlLXnQp162EWsxkn1yG9hLaIQa/QzfzJ8XpM1tn+neu
GjWWmPmTSQALu0wovEtsfYlC1smlXw==
-----END CERTIFICATE-----
